target datalayout = "e-m:e-p270:32:32-p271:32:32-p272:64:64-i64:64-i128:128-f80:128-n8:16:32:64-S128"
target triple = "x86_64-pc-linux-gnu"

%struct.Nwk_Obj_t_ = type { ptr, ptr, ptr, %union.anon, i32, i32, i32, i32, float, float, float, i32, i32, i32, ptr }
%union.anon = type { ptr }
%struct.Nwk_Man_t_ = type { ptr, ptr, ptr, ptr, ptr, [5 x i32], i32, ptr, ptr, ptr, ptr, ptr, i32, i32, i32, i32, i32 }

; Function Attrs: inlinehint nounwind uwtable
define internal i32 @Nwk_ObjLevel(ptr noundef %0) #4 {
  %2 = alloca ptr, align 8
  store ptr %0, ptr %2, align 8, !tbaa !86
  %3 = load ptr, ptr %2, align 8, !tbaa !86
  %4 = getelementptr inbounds nuw %struct.Nwk_Obj_t_, ptr %3, i32 0, i32 7
  %5 = load i32, ptr %4, align 4, !tbaa !104
  ret i32 %5
}

; Function Attrs: inlinehint nounwind uwtable
define internal void @Nwk_ObjSetTravIdCurrent(ptr noundef %0) #4 {
  %2 = alloca ptr, align 8
  store ptr %0, ptr %2, align 8, !tbaa !86
  %3 = load ptr, ptr %2, align 8, !tbaa !86
  %4 = getelementptr inbounds nuw %struct.Nwk_Obj_t_, ptr %3, i32 0, i32 0
  %5 = load ptr, ptr %4, align 8, !tbaa !97
  %6 = getelementptr inbounds nuw %struct.Nwk_Man_t_, ptr %5, i32 0, i32 12
  %7 = load i32, ptr %6, align 8, !tbaa !98
  %8 = load ptr, ptr %2, align 8, !tbaa !86
  %9 = getelementptr inbounds nuw %struct.Nwk_Obj_t_, ptr %8, i32 0, i32 6
  store i32 %7, ptr %9, align 8, !tbaa !96
  ret void
}

; Function Attrs: inlinehint nounwind uwtable
define internal i32 @Nwk_ObjIsTravIdCurrent(ptr noundef %0) #4 {
  %2 = alloca ptr, align 8
  store ptr %0, ptr %2, align 8, !tbaa !86
  %3 = load ptr, ptr %2, align 8, !tbaa !86
  %4 = getelementptr inbounds nuw %struct.Nwk_Obj_t_, ptr %3, i32 0, i32 6
  %5 = load i32, ptr %4, align 8, !tbaa !96
  %6 = load ptr, ptr %2, align 8, !tbaa !86
  %7 = getelementptr inbounds nuw %struct.Nwk_Obj_t_, ptr %6, i32 0, i32 0
  %8 = load ptr, ptr %7, align 8, !tbaa !97
  %9 = getelementptr inbounds nuw %struct.Nwk_Man_t_, ptr %8, i32 0, i32 12
  %10 = load i32, ptr %9, align 8, !tbaa !98
  %11 = icmp eq i32 %5, %10
  %12 = zext i1 %11 to i32
  ret i32 %12
}

; Function Attrs: inlinehint nounwind uwtable
define internal i32 @Nwk_ObjIsNode(ptr noundef %0) #4 {
  %2 = alloca ptr, align 8
  store ptr %0, ptr %2, align 8, !tbaa !86
  %3 = load ptr, ptr %2, align 8, !tbaa !86
  %4 = getelementptr inbounds nuw %struct.Nwk_Obj_t_, ptr %3, i32 0, i32 4
  %5 = load i32, ptr %4, align 8
  %6 = and i32 %5, 7
  %7 = icmp eq i32 %6, 3
  %8 = zext i1 %7 to i32
  ret i32 %8
}

; Function Attrs: nounwind uwtable
define void @Nwk_ManMarkFanins_rec(ptr noundef %0, i32 noundef %1) #0 {
  %3 = alloca ptr, align 8
  %4 = alloca i32, align 4
  %5 = alloca ptr, align 8
  %6 = alloca i32, align 4
  %7 = alloca i32, align 4
  store ptr %0, ptr %3, align 8, !tbaa !86
  store i32 %1, ptr %4, align 4, !tbaa !3
  call void @llvm.lifetime.start.p0(i64 8, ptr %5) #11
  call void @llvm.lifetime.start.p0(i64 4, ptr %6) #11
  %8 = load ptr, ptr %3, align 8, !tbaa !86
  %9 = call i32 @Nwk_ObjIsNode(ptr noundef %8)
  %10 = icmp ne i32 %9, 0
  br i1 %10, label %12, label %11

11:                                               ; preds = %2
  store i32 1, ptr %7, align 4
  br label %49

12:                                               ; preds = %2
  %13 = load ptr, ptr %3, align 8, !tbaa !86
  %14 = call i32 @Nwk_ObjIsTravIdCurrent(ptr noundef %13)
  %15 = icmp ne i32 %14, 0
  br i1 %15, label %16, label %17

16:                                               ; preds = %12
  store i32 1, ptr %7, align 4
  br label %49

17:                                               ; preds = %12
  %18 = load ptr, ptr %3, align 8, !tbaa !86
  call void @Nwk_ObjSetTravIdCurrent(ptr noundef %18)
  %19 = load ptr, ptr %3, align 8, !tbaa !86
  %20 = call i32 @Nwk_ObjLevel(ptr noundef %19)
  %21 = load i32, ptr %4, align 4, !tbaa !3
  %22 = icmp slt i32 %20, %21
  br i1 %22, label %23, label %24

23:                                               ; preds = %17
  store i32 1, ptr %7, align 4
  br label %49

24:                                               ; preds = %17
  store i32 0, ptr %6, align 4, !tbaa !3
  br label %25

25:                                               ; preds = %45, %24
  %26 = load i32, ptr %6, align 4, !tbaa !3
  %27 = load ptr, ptr %3, align 8, !tbaa !86
  %28 = getelementptr inbounds nuw %struct.Nwk_Obj_t_, ptr %27, i32 0, i32 11
  %29 = load i32, ptr %28, align 4, !tbaa !88
  %30 = icmp slt i32 %26, %29
  br i1 %30, label %31, label %40

31:                                               ; preds = %25
  %32 = load ptr, ptr %3, align 8, !tbaa !86
  %33 = getelementptr inbounds nuw %struct.Nwk_Obj_t_, ptr %32, i32 0, i32 14
  %34 = load ptr, ptr %33, align 8, !tbaa !94
  %35 = load i32, ptr %6, align 4, !tbaa !3
  %36 = sext i32 %35 to i64
  %37 = getelementptr inbounds ptr, ptr %34, i64 %36
  %38 = load ptr, ptr %37, align 8, !tbaa !86
  store ptr %38, ptr %5, align 8, !tbaa !86
  %39 = icmp ne ptr %38, null
  br label %40

40:                                               ; preds = %31, %25
  %41 = phi i1 [ false, %25 ], [ %39, %31 ]
  br i1 %41, label %42, label %48

42:                                               ; preds = %40
  %43 = load ptr, ptr %5, align 8, !tbaa !86
  %44 = load i32, ptr %4, align 4, !tbaa !3
  call void @Nwk_ManMarkFanins_rec(ptr noundef %43, i32 noundef %44)
  br label %45

45:                                               ; preds = %42
  %46 = load i32, ptr %6, align 4, !tbaa !3
  %47 = add nsw i32 %46, 1
  store i32 %47, ptr %6, align 4, !tbaa !3
  br label %25, !llvm.loop !95

48:                                               ; preds = %40
  store i32 0, ptr %7, align 4
  br label %49

49:                                               ; preds = %48, %23, %16, %11
  call void @llvm.lifetime.end.p0(i64 4, ptr %6) #11
  call void @llvm.lifetime.end.p0(i64 8, ptr %5) #11
  %50 = load i32, ptr %7, align 4
  switch i32 %50, label %52 [
    i32 0, label %51
    i32 1, label %51
  ]

51:                                               ; preds = %49, %49
  ret void

52:                                               ; preds = %49
  unreachable
}