; Function Attrs: nofree nosync nounwind memory(readwrite, inaccessiblemem: none) uwtable
define void @Nwk_ManMarkFanins_rec(ptr noundef captures(none) %0, i32 noundef %1) local_unnamed_addr #13 {
  %3 = getelementptr i8, ptr %0, i64 32
  %.val = load i32, ptr %3, align 8
  %4 = and i32 %.val, 7
  %.not = icmp eq i32 %4, 3
  br i1 %.not, label %5, label %.critedge

5:                                                ; preds = %2
  %.val15 = load ptr, ptr %0, align 8, !tbaa !83
  %6 = getelementptr i8, ptr %0, i64 40
  %.val16 = load i32, ptr %6, align 8, !tbaa !89
  %7 = getelementptr i8, ptr %.val15, i64 104
  %.val15.val = load i32, ptr %7, align 8, !tbaa !90
  %.not18 = icmp eq i32 %.val16, %.val15.val
  br i1 %.not18, label %.critedge, label %8

8:                                                ; preds = %5
  store i32 %.val15.val, ptr %6, align 8, !tbaa !89
  %9 = getelementptr i8, ptr %0, i64 44
  %.val17 = load i32, ptr %9, align 4, !tbaa !97
  %10 = icmp slt i32 %.val17, %1
  br i1 %10, label %.critedge, label %.preheader

.preheader:                                       ; preds = %8
  %11 = getelementptr inbounds nuw i8, ptr %0, i64 72
  %12 = getelementptr inbounds nuw i8, ptr %0, i64 60
  %13 = load i32, ptr %12, align 4, !tbaa !98
  %14 = icmp sgt i32 %13, 0
  br i1 %14, label %.lr.ph, label %.critedge

.lr.ph:                                           ; preds = %.preheader, %18
  %indvars.iv = phi i64 [ %indvars.iv.next, %18 ], [ 0, %.preheader ]
  %15 = load ptr, ptr %11, align 8, !tbaa !99
  %16 = getelementptr inbounds nuw ptr, ptr %15, i64 %indvars.iv
  %17 = load ptr, ptr %16, align 8, !tbaa !100
  %.not14 = icmp eq ptr %17, null
  br i1 %.not14, label %.critedge, label %18

18:                                               ; preds = %.lr.ph
  tail call void @Nwk_ManMarkFanins_rec(ptr noundef nonnull %17, i32 noundef %1)
  %indvars.iv.next = add nuw nsw i64 %indvars.iv, 1
  %19 = load i32, ptr %12, align 4, !tbaa !98
  %20 = sext i32 %19 to i64
  %21 = icmp slt i64 %indvars.iv.next, %20
  br i1 %21, label %.lr.ph, label %.critedge, !llvm.loop !102

.critedge:                                        ; preds = %18, %.lr.ph, %.preheader, %8, %5, %2
  ret void
}